(lp0
(S'cppflags'
p1
ccopy_reg
_reconstructor
p2
(cino.utils
SpaceList
p3
c__builtin__
list
p4
(lp5
S'-mmcu=atmega328p'
p6
aS'-DF_CPU=16000000L'
p7
aS'-DARDUINO=106'
p8
aS'-I/Applications/Arduino.app/Contents/Resources/Java/hardware/arduino/cores/arduino'
p9
aS'-ffunction-sections'
p10
aS'-fdata-sections'
p11
aS'-g'
p12
aS'-Os'
p13
aS'-w'
p14
aS'-I/Applications/Arduino.app/Contents/Resources/Java/hardware/arduino/variants/standard'
p15
aS'-Ilib/MCP3304'
p16
aS'-Ilib/PGA113'
p17
aS'-I/Applications/Arduino.app/Contents/Resources/Java/libraries/SPI'
p18
aS'-I/Applications/Arduino.app/Contents/Resources/Java/hardware/arduino/cores/arduino'
p19
aS'-I/Applications/Arduino.app/Contents/Resources/Java/hardware/arduino/cores/arduino/avr-libc'
p20
atp21
Rp22
tp23
a(S'objcopy'
p24
S'/Applications/Arduino.app/Contents/Resources/Java/hardware/tools/avr/bin/avr-objcopy'
p25
tp26
a(S'version.txt'
p27
S'/Applications/Arduino.app/Contents/Resources/Java/lib/version.txt'
p28
tp29
a(S'used_libs'
p30
(lp31
S'lib/MCP3304'
p32
aS'lib/PGA113'
p33
aS'/Applications/Arduino.app/Contents/Resources/Java/libraries/SPI'
p34
aS'/Applications/Arduino.app/Contents/Resources/Java/hardware/arduino/cores/arduino'
p35
atp36
a(S'cc'
p37
S'/Applications/Arduino.app/Contents/Resources/Java/hardware/tools/avr/bin/avr-gcc'
p38
tp39
a(S'make'
p40
S'/Applications/Arduino.app/Contents/Resources/Java/hardware/tools/avr/bin/make'
p41
tp42
a(S'build_dir'
p43
S'.build/uno'
p44
tp45
a(S'arduino_core_dir'
p46
g35
tp47
a(S'boards.txt'
p48
S'/Applications/Arduino.app/Contents/Resources/Java/hardware/arduino/boards.txt'
p49
tp50
a(S'cxxflags'
p51
g2
(g3
g4
(lp52
S'-fno-exceptions'
p53
atp54
Rp55
tp56
a(S'arduino_variants_dir'
p57
S'/Applications/Arduino.app/Contents/Resources/Java/hardware/arduino/variants'
p58
tp59
a(S'deps'
p60
g2
(g3
g4
(lp61
S'.build/uno/src/dependencies.d'
p62
aS'.build/uno/arduino/dependencies.d'
p63
aS'.build/uno/MCP3304/dependencies.d'
p64
aS'.build/uno/SPI/dependencies.d'
p65
aS'.build/uno/PGA113/dependencies.d'
p66
atp67
Rp68
tp69
a(S'ar'
p70
S'/Applications/Arduino.app/Contents/Resources/Java/hardware/tools/avr/bin/avr-ar'
p71
tp72
a(S'names'
p73
(dp74
S'cpp'
p75
S'%s.cpp'
p76
sS'obj'
p77
S'%s.o'
p78
sS'deps'
p79
S'%s.d'
p80
sS'lib'
p81
S'lib%s.a'
p82
stp83
a(S'cflags'
p84
g2
(g3
g4
(lp85
tp86
Rp87
tp88
a(S'ldflags'
p89
g2
(g3
g4
(lp90
g6
aS'-Wl,-Os'
p91
aS'-Wl,--gc-sections'
p92
atp93
Rp94
tp95
a(S'arduino_libraries_dir'
p96
S'/Applications/Arduino.app/Contents/Resources/Java/libraries'
p97
tp98
a(S'arduino_lib_version'
p99
g2
(cino.environment
Version
p100
c__builtin__
tuple
p101
(I1
I0
I6
tp102
tp103
Rp104
tp105
a(S'arduino_dist_dir'
p106
S'/Applications/Arduino.app/Contents/Resources/Java/'
p107
tp108
a(S'board_models'
p109
cino.environment
BoardModels
p110
((lp111
(lp112
S'uno'
p113
a(dp114
S'bootloader'
p115
(dp116
S'extended_fuses'
p117
S'0x05'
p118
sS'high_fuses'
p119
S'0xde'
p120
sS'low_fuses'
p121
S'0xff'
p122
sS'lock_bits'
p123
S'0x0F'
p124
sS'file'
p125
S'optiboot_atmega328.hex'
p126
sS'path'
p127
S'optiboot'
p128
sS'unlock_bits'
p129
S'0x3F'
p130
ssS'upload'
p131
(dp132
S'speed'
p133
S'115200'
p134
sS'maximum_size'
p135
S'32256'
p136
sS'protocol'
p137
S'arduino'
p138
ssS'name'
p139
S'Arduino Uno'
p140
sS'build'
p141
(dp142
S'core'
p143
S'arduino'
p144
sS'mcu'
p145
S'atmega328p'
p146
sS'f_cpu'
p147
S'16000000L'
p148
sS'variant'
p149
S'standard'
p150
ssaa(lp151
S'atmega328'
p152
a(dp153
S'bootloader'
p154
(dp155
S'extended_fuses'
p156
S'0x05'
p157
sS'high_fuses'
p158
S'0xDA'
p159
sS'low_fuses'
p160
S'0xFF'
p161
sS'lock_bits'
p162
S'0x0F'
p163
sS'file'
p164
S'ATmegaBOOT_168_atmega328.hex'
p165
sS'path'
p166
S'atmega'
p167
sS'unlock_bits'
p168
S'0x3F'
p169
ssS'upload'
p170
(dp171
S'speed'
p172
S'57600'
p173
sS'maximum_size'
p174
S'30720'
p175
sS'protocol'
p176
S'arduino'
p177
ssS'name'
p178
S'Arduino Duemilanove w/ ATmega328'
p179
sS'build'
p180
(dp181
S'core'
p182
S'arduino'
p183
sS'mcu'
p184
S'atmega328p'
p185
sS'f_cpu'
p186
S'16000000L'
p187
sS'variant'
p188
S'standard'
p189
ssaa(lp190
S'diecimila'
p191
a(dp192
S'bootloader'
p193
(dp194
S'extended_fuses'
p195
S'0x00'
p196
sS'high_fuses'
p197
S'0xdd'
p198
sS'low_fuses'
p199
S'0xff'
p200
sS'lock_bits'
p201
S'0x0F'
p202
sS'file'
p203
S'ATmegaBOOT_168_diecimila.hex'
p204
sS'path'
p205
S'atmega'
p206
sS'unlock_bits'
p207
S'0x3F'
p208
ssS'upload'
p209
(dp210
S'speed'
p211
S'19200'
p212
sS'maximum_size'
p213
S'14336'
p214
sS'protocol'
p215
S'arduino'
p216
ssS'name'
p217
S'Arduino Diecimila or Duemilanove w/ ATmega168'
p218
sS'build'
p219
(dp220
S'core'
p221
S'arduino'
p222
sS'mcu'
p223
S'atmega168'
p224
sS'f_cpu'
p225
S'16000000L'
p226
sS'variant'
p227
S'standard'
p228
ssaa(lp229
S'nano328'
p230
a(dp231
S'bootloader'
p232
(dp233
S'extended_fuses'
p234
S'0x05'
p235
sS'high_fuses'
p236
S'0xDA'
p237
sS'low_fuses'
p238
S'0xFF'
p239
sS'lock_bits'
p240
S'0x0F'
p241
sS'file'
p242
S'ATmegaBOOT_168_atmega328.hex'
p243
sS'path'
p244
S'atmega'
p245
sS'unlock_bits'
p246
S'0x3F'
p247
ssS'upload'
p248
(dp249
S'speed'
p250
S'57600'
p251
sS'maximum_size'
p252
S'30720'
p253
sS'protocol'
p254
S'arduino'
p255
ssS'name'
p256
S'Arduino Nano w/ ATmega328'
p257
sS'build'
p258
(dp259
S'core'
p260
S'arduino'
p261
sS'mcu'
p262
S'atmega328p'
p263
sS'f_cpu'
p264
S'16000000L'
p265
sS'variant'
p266
S'eightanaloginputs'
p267
ssaa(lp268
S'nano'
p269
a(dp270
S'bootloader'
p271
(dp272
S'extended_fuses'
p273
S'0x00'
p274
sS'high_fuses'
p275
S'0xdd'
p276
sS'low_fuses'
p277
S'0xff'
p278
sS'lock_bits'
p279
S'0x0F'
p280
sS'file'
p281
S'ATmegaBOOT_168_diecimila.hex'
p282
sS'path'
p283
S'atmega'
p284
sS'unlock_bits'
p285
S'0x3F'
p286
ssS'upload'
p287
(dp288
S'speed'
p289
S'19200'
p290
sS'maximum_size'
p291
S'14336'
p292
sS'protocol'
p293
S'arduino'
p294
ssS'name'
p295
S'Arduino Nano w/ ATmega168'
p296
sS'build'
p297
(dp298
S'core'
p299
S'arduino'
p300
sS'mcu'
p301
S'atmega168'
p302
sS'f_cpu'
p303
S'16000000L'
p304
sS'variant'
p305
S'eightanaloginputs'
p306
ssaa(lp307
S'mega2560'
p308
a(dp309
S'bootloader'
p310
(dp311
S'extended_fuses'
p312
S'0xFD'
p313
sS'high_fuses'
p314
S'0xD8'
p315
sS'low_fuses'
p316
S'0xFF'
p317
sS'lock_bits'
p318
S'0x0F'
p319
sS'file'
p320
S'stk500boot_v2_mega2560.hex'
p321
sS'path'
p322
S'stk500v2'
p323
sS'unlock_bits'
p324
S'0x3F'
p325
ssS'upload'
p326
(dp327
S'speed'
p328
S'115200'
p329
sS'maximum_size'
p330
S'258048'
p331
sS'protocol'
p332
S'wiring'
p333
ssS'name'
p334
S'Arduino Mega 2560 or Mega ADK'
p335
sS'build'
p336
(dp337
S'core'
p338
S'arduino'
p339
sS'mcu'
p340
S'atmega2560'
p341
sS'f_cpu'
p342
S'16000000L'
p343
sS'variant'
p344
S'mega'
p345
ssaa(lp346
S'mega'
p347
a(dp348
S'bootloader'
p349
(dp350
S'extended_fuses'
p351
S'0xF5'
p352
sS'high_fuses'
p353
S'0xDA'
p354
sS'low_fuses'
p355
S'0xFF'
p356
sS'lock_bits'
p357
S'0x0F'
p358
sS'file'
p359
S'ATmegaBOOT_168_atmega1280.hex'
p360
sS'path'
p361
S'atmega'
p362
sS'unlock_bits'
p363
S'0x3F'
p364
ssS'upload'
p365
(dp366
S'speed'
p367
S'57600'
p368
sS'maximum_size'
p369
S'126976'
p370
sS'protocol'
p371
S'arduino'
p372
ssS'name'
p373
S'Arduino Mega (ATmega1280)'
p374
sS'build'
p375
(dp376
S'core'
p377
S'arduino'
p378
sS'mcu'
p379
S'atmega1280'
p380
sS'f_cpu'
p381
S'16000000L'
p382
sS'variant'
p383
S'mega'
p384
ssaa(lp385
S'leonardo'
p386
a(dp387
S'bootloader'
p388
(dp389
S'extended_fuses'
p390
S'0xcb'
p391
sS'high_fuses'
p392
S'0xd8'
p393
sS'low_fuses'
p394
S'0xff'
p395
sS'lock_bits'
p396
S'0x2F'
p397
sS'file'
p398
S'Caterina-Leonardo.hex'
p399
sS'path'
p400
S'caterina'
p401
sS'unlock_bits'
p402
S'0x3F'
p403
ssS'upload'
p404
(dp405
S'speed'
p406
S'57600'
p407
sS'maximum_size'
p408
S'28672'
p409
sS'protocol'
p410
S'avr109'
p411
sS'disable_flushing'
p412
S'true'
p413
ssS'name'
p414
S'Arduino Leonardo'
p415
sS'build'
p416
(dp417
S'core'
p418
S'arduino'
p419
sS'f_cpu'
p420
S'16000000L'
p421
sS'vid'
p422
S'0x2341'
p423
sS'pid'
p424
S'0x8036'
p425
sS'variant'
p426
S'leonardo'
p427
sS'mcu'
p428
S'atmega32u4'
p429
ssaa(lp430
S'esplora'
p431
a(dp432
S'bootloader'
p433
(dp434
S'extended_fuses'
p435
S'0xcb'
p436
sS'high_fuses'
p437
S'0xd8'
p438
sS'low_fuses'
p439
S'0xff'
p440
sS'lock_bits'
p441
S'0x2F'
p442
sS'file'
p443
S'Caterina-Esplora.hex'
p444
sS'path'
p445
S'caterina'
p446
sS'unlock_bits'
p447
S'0x3F'
p448
ssS'upload'
p449
(dp450
S'speed'
p451
S'57600'
p452
sS'maximum_size'
p453
S'28672'
p454
sS'protocol'
p455
S'avr109'
p456
sS'disable_flushing'
p457
S'true'
p458
ssS'name'
p459
S'Arduino Esplora'
p460
sS'build'
p461
(dp462
S'core'
p463
S'arduino'
p464
sS'f_cpu'
p465
S'16000000L'
p466
sS'vid'
p467
S'0x2341'
p468
sS'pid'
p469
S'0x803C'
p470
sS'variant'
p471
S'leonardo'
p472
sS'mcu'
p473
S'atmega32u4'
p474
ssaa(lp475
S'micro'
p476
a(dp477
S'bootloader'
p478
(dp479
S'extended_fuses'
p480
S'0xcb'
p481
sS'high_fuses'
p482
S'0xd8'
p483
sS'low_fuses'
p484
S'0xff'
p485
sS'lock_bits'
p486
S'0x2F'
p487
sS'file'
p488
S'Caterina-Micro.hex'
p489
sS'path'
p490
S'caterina'
p491
sS'unlock_bits'
p492
S'0x3F'
p493
ssS'upload'
p494
(dp495
S'speed'
p496
S'57600'
p497
sS'maximum_size'
p498
S'28672'
p499
sS'protocol'
p500
S'avr109'
p501
sS'disable_flushing'
p502
S'true'
p503
ssS'name'
p504
S'Arduino Micro'
p505
sS'build'
p506
(dp507
S'core'
p508
S'arduino'
p509
sS'f_cpu'
p510
S'16000000L'
p511
sS'vid'
p512
S'0x2341'
p513
sS'pid'
p514
S'0x8037'
p515
sS'variant'
p516
S'micro'
p517
sS'mcu'
p518
S'atmega32u4'
p519
ssaa(lp520
S'mini328'
p521
a(dp522
S'bootloader'
p523
(dp524
S'extended_fuses'
p525
S'0x05'
p526
sS'high_fuses'
p527
S'0xd8'
p528
sS'low_fuses'
p529
S'0xff'
p530
sS'lock_bits'
p531
S'0x0F'
p532
sS'file'
p533
S'optiboot_atmega328-Mini.hex'
p534
sS'path'
p535
S'optiboot'
p536
sS'unlock_bits'
p537
S'0x3F'
p538
ssS'upload'
p539
(dp540
S'speed'
p541
S'115200'
p542
sS'maximum_size'
p543
S'28672'
p544
sS'protocol'
p545
S'arduino'
p546
ssS'name'
p547
S'Arduino Mini w/ ATmega328'
p548
sS'build'
p549
(dp550
S'core'
p551
S'arduino'
p552
sS'mcu'
p553
S'atmega328p'
p554
sS'f_cpu'
p555
S'16000000L'
p556
sS'variant'
p557
S'eightanaloginputs'
p558
ssaa(lp559
S'mini'
p560
a(dp561
S'bootloader'
p562
(dp563
S'extended_fuses'
p564
S'0x00'
p565
sS'high_fuses'
p566
S'0xdd'
p567
sS'low_fuses'
p568
S'0xff'
p569
sS'lock_bits'
p570
S'0x0F'
p571
sS'file'
p572
S'ATmegaBOOT_168_ng.hex'
p573
sS'path'
p574
S'atmega'
p575
sS'unlock_bits'
p576
S'0x3F'
p577
ssS'upload'
p578
(dp579
S'speed'
p580
S'19200'
p581
sS'maximum_size'
p582
S'14336'
p583
sS'protocol'
p584
S'arduino'
p585
ssS'name'
p586
S'Arduino Mini w/ ATmega168'
p587
sS'build'
p588
(dp589
S'core'
p590
S'arduino'
p591
sS'mcu'
p592
S'atmega168'
p593
sS'f_cpu'
p594
S'16000000L'
p595
sS'variant'
p596
S'eightanaloginputs'
p597
ssaa(lp598
S'ethernet'
p599
a(dp600
S'bootloader'
p601
(dp602
S'extended_fuses'
p603
S'0x05'
p604
sS'high_fuses'
p605
S'0xde'
p606
sS'low_fuses'
p607
S'0xff'
p608
sS'lock_bits'
p609
S'0x0F'
p610
sS'file'
p611
S'optiboot_atmega328.hex'
p612
sS'path'
p613
S'optiboot'
p614
sS'unlock_bits'
p615
S'0x3F'
p616
ssS'upload'
p617
(dp618
S'speed'
p619
S'115200'
p620
sS'maximum_size'
p621
S'32256'
p622
sS'protocol'
p623
S'arduino'
p624
ssS'name'
p625
S'Arduino Ethernet'
p626
sS'build'
p627
(dp628
S'f_cpu'
p629
S'16000000L'
p630
sS'mcu'
p631
S'atmega328p'
p632
sS'variant'
p633
S'ethernet'
p634
sS'core'
p635
S'arduino'
p636
ssaa(lp637
S'fio'
p638
a(dp639
S'bootloader'
p640
(dp641
S'extended_fuses'
p642
S'0x05'
p643
sS'high_fuses'
p644
S'0xDA'
p645
sS'low_fuses'
p646
S'0xFF'
p647
sS'lock_bits'
p648
S'0x0F'
p649
sS'file'
p650
S'ATmegaBOOT_168_atmega328_pro_8MHz.hex'
p651
sS'path'
p652
S'arduino:atmega'
p653
sS'unlock_bits'
p654
S'0x3F'
p655
ssS'upload'
p656
(dp657
S'speed'
p658
S'57600'
p659
sS'maximum_size'
p660
S'30720'
p661
sS'protocol'
p662
S'arduino'
p663
ssS'name'
p664
S'Arduino Fio'
p665
sS'build'
p666
(dp667
S'core'
p668
S'arduino'
p669
sS'mcu'
p670
S'atmega328p'
p671
sS'f_cpu'
p672
S'8000000L'
p673
sS'variant'
p674
S'eightanaloginputs'
p675
ssaa(lp676
S'bt328'
p677
a(dp678
S'bootloader'
p679
(dp680
S'extended_fuses'
p681
S'0x05'
p682
sS'high_fuses'
p683
S'0xd8'
p684
sS'low_fuses'
p685
S'0xff'
p686
sS'lock_bits'
p687
S'0x0F'
p688
sS'file'
p689
S'ATmegaBOOT_168_atmega328_bt.hex'
p690
sS'path'
p691
S'bt'
p692
sS'unlock_bits'
p693
S'0x3F'
p694
ssS'upload'
p695
(dp696
S'speed'
p697
S'19200'
p698
sS'maximum_size'
p699
S'28672'
p700
sS'protocol'
p701
S'arduino'
p702
sS'disable_flushing'
p703
S'true'
p704
ssS'name'
p705
S'Arduino BT w/ ATmega328'
p706
sS'build'
p707
(dp708
S'core'
p709
S'arduino'
p710
sS'mcu'
p711
S'atmega328p'
p712
sS'f_cpu'
p713
S'16000000L'
p714
sS'variant'
p715
S'eightanaloginputs'
p716
ssaa(lp717
S'bt'
p718
a(dp719
S'bootloader'
p720
(dp721
S'extended_fuses'
p722
S'0x00'
p723
sS'high_fuses'
p724
S'0xdd'
p725
sS'low_fuses'
p726
S'0xff'
p727
sS'lock_bits'
p728
S'0x0F'
p729
sS'file'
p730
S'ATmegaBOOT_168.hex'
p731
sS'path'
p732
S'bt'
p733
sS'unlock_bits'
p734
S'0x3F'
p735
ssS'upload'
p736
(dp737
S'speed'
p738
S'19200'
p739
sS'maximum_size'
p740
S'14336'
p741
sS'protocol'
p742
S'arduino'
p743
sS'disable_flushing'
p744
S'true'
p745
ssS'name'
p746
S'Arduino BT w/ ATmega168'
p747
sS'build'
p748
(dp749
S'core'
p750
S'arduino'
p751
sS'mcu'
p752
S'atmega168'
p753
sS'f_cpu'
p754
S'16000000L'
p755
sS'variant'
p756
S'eightanaloginputs'
p757
ssaa(lp758
S'LilyPadUSB'
p759
a(dp760
S'bootloader'
p761
(dp762
S'extended_fuses'
p763
S'0xce'
p764
sS'high_fuses'
p765
S'0xd8'
p766
sS'low_fuses'
p767
S'0xff'
p768
sS'lock_bits'
p769
S'0x2F'
p770
sS'file'
p771
S'Caterina-LilyPadUSB.hex'
p772
sS'path'
p773
S'caterina-LilyPadUSB'
p774
sS'unlock_bits'
p775
S'0x3F'
p776
ssS'upload'
p777
(dp778
S'speed'
p779
S'57600'
p780
sS'maximum_size'
p781
S'28672'
p782
sS'protocol'
p783
S'avr109'
p784
sS'disable_flushing'
p785
S'true'
p786
ssS'name'
p787
S'LilyPad Arduino USB'
p788
sS'build'
p789
(dp790
S'core'
p791
S'arduino'
p792
sS'f_cpu'
p793
S'8000000L'
p794
sS'vid'
p795
S'0x1B4F'
p796
sS'pid'
p797
S'0x9208'
p798
sS'variant'
p799
S'leonardo'
p800
sS'mcu'
p801
S'atmega32u4'
p802
ssaa(lp803
S'lilypad328'
p804
a(dp805
S'bootloader'
p806
(dp807
S'extended_fuses'
p808
S'0x05'
p809
sS'high_fuses'
p810
S'0xDA'
p811
sS'low_fuses'
p812
S'0xFF'
p813
sS'lock_bits'
p814
S'0x0F'
p815
sS'file'
p816
S'ATmegaBOOT_168_atmega328_pro_8MHz.hex'
p817
sS'path'
p818
S'atmega'
p819
sS'unlock_bits'
p820
S'0x3F'
p821
ssS'upload'
p822
(dp823
S'speed'
p824
S'57600'
p825
sS'maximum_size'
p826
S'30720'
p827
sS'protocol'
p828
S'arduino'
p829
ssS'name'
p830
S'LilyPad Arduino w/ ATmega328'
p831
sS'build'
p832
(dp833
S'core'
p834
S'arduino'
p835
sS'mcu'
p836
S'atmega328p'
p837
sS'f_cpu'
p838
S'8000000L'
p839
sS'variant'
p840
S'standard'
p841
ssaa(lp842
S'lilypad'
p843
a(dp844
S'bootloader'
p845
(dp846
S'extended_fuses'
p847
S'0x00'
p848
sS'high_fuses'
p849
S'0xdd'
p850
sS'low_fuses'
p851
S'0xe2'
p852
sS'lock_bits'
p853
S'0x0F'
p854
sS'file'
p855
S'LilyPadBOOT_168.hex'
p856
sS'path'
p857
S'lilypad'
p858
sS'unlock_bits'
p859
S'0x3F'
p860
ssS'upload'
p861
(dp862
S'speed'
p863
S'19200'
p864
sS'maximum_size'
p865
S'14336'
p866
sS'protocol'
p867
S'arduino'
p868
ssS'name'
p869
S'LilyPad Arduino w/ ATmega168'
p870
sS'build'
p871
(dp872
S'core'
p873
S'arduino'
p874
sS'mcu'
p875
S'atmega168'
p876
sS'f_cpu'
p877
S'8000000L'
p878
sS'variant'
p879
S'standard'
p880
ssaa(lp881
S'pro5v328'
p882
a(dp883
S'bootloader'
p884
(dp885
S'extended_fuses'
p886
S'0x05'
p887
sS'high_fuses'
p888
S'0xDA'
p889
sS'low_fuses'
p890
S'0xFF'
p891
sS'lock_bits'
p892
S'0x0F'
p893
sS'file'
p894
S'ATmegaBOOT_168_atmega328.hex'
p895
sS'path'
p896
S'atmega'
p897
sS'unlock_bits'
p898
S'0x3F'
p899
ssS'upload'
p900
(dp901
S'speed'
p902
S'57600'
p903
sS'maximum_size'
p904
S'30720'
p905
sS'protocol'
p906
S'arduino'
p907
ssS'name'
p908
S'Arduino Pro or Pro Mini (5V, 16 MHz) w/ ATmega328'
p909
sS'build'
p910
(dp911
S'core'
p912
S'arduino'
p913
sS'mcu'
p914
S'atmega328p'
p915
sS'f_cpu'
p916
S'16000000L'
p917
sS'variant'
p918
S'standard'
p919
ssaa(lp920
S'pro5v'
p921
a(dp922
S'bootloader'
p923
(dp924
S'extended_fuses'
p925
S'0x00'
p926
sS'high_fuses'
p927
S'0xdd'
p928
sS'low_fuses'
p929
S'0xff'
p930
sS'lock_bits'
p931
S'0x0F'
p932
sS'file'
p933
S'ATmegaBOOT_168_diecimila.hex'
p934
sS'path'
p935
S'atmega'
p936
sS'unlock_bits'
p937
S'0x3F'
p938
ssS'upload'
p939
(dp940
S'speed'
p941
S'19200'
p942
sS'maximum_size'
p943
S'14336'
p944
sS'protocol'
p945
S'arduino'
p946
ssS'name'
p947
S'Arduino Pro or Pro Mini (5V, 16 MHz) w/ ATmega168'
p948
sS'build'
p949
(dp950
S'core'
p951
S'arduino'
p952
sS'mcu'
p953
S'atmega168'
p954
sS'f_cpu'
p955
S'16000000L'
p956
sS'variant'
p957
S'standard'
p958
ssaa(lp959
S'pro328'
p960
a(dp961
S'bootloader'
p962
(dp963
S'extended_fuses'
p964
S'0x05'
p965
sS'high_fuses'
p966
S'0xDA'
p967
sS'low_fuses'
p968
S'0xFF'
p969
sS'lock_bits'
p970
S'0x0F'
p971
sS'file'
p972
S'ATmegaBOOT_168_atmega328_pro_8MHz.hex'
p973
sS'path'
p974
S'atmega'
p975
sS'unlock_bits'
p976
S'0x3F'
p977
ssS'upload'
p978
(dp979
S'speed'
p980
S'57600'
p981
sS'maximum_size'
p982
S'30720'
p983
sS'protocol'
p984
S'arduino'
p985
ssS'name'
p986
S'Arduino Pro or Pro Mini (3.3V, 8 MHz) w/ ATmega328'
p987
sS'build'
p988
(dp989
S'core'
p990
S'arduino'
p991
sS'mcu'
p992
S'atmega328p'
p993
sS'f_cpu'
p994
S'8000000L'
p995
sS'variant'
p996
S'standard'
p997
ssaa(lp998
S'pro'
p999
a(dp1000
S'bootloader'
p1001
(dp1002
S'extended_fuses'
p1003
S'0x00'
p1004
sS'high_fuses'
p1005
S'0xdd'
p1006
sS'low_fuses'
p1007
S'0xc6'
p1008
sS'lock_bits'
p1009
S'0x0F'
p1010
sS'file'
p1011
S'ATmegaBOOT_168_pro_8MHz.hex'
p1012
sS'path'
p1013
S'atmega'
p1014
sS'unlock_bits'
p1015
S'0x3F'
p1016
ssS'upload'
p1017
(dp1018
S'speed'
p1019
S'19200'
p1020
sS'maximum_size'
p1021
S'14336'
p1022
sS'protocol'
p1023
S'arduino'
p1024
ssS'name'
p1025
S'Arduino Pro or Pro Mini (3.3V, 8 MHz) w/ ATmega168'
p1026
sS'build'
p1027
(dp1028
S'core'
p1029
S'arduino'
p1030
sS'mcu'
p1031
S'atmega168'
p1032
sS'f_cpu'
p1033
S'8000000L'
p1034
sS'variant'
p1035
S'standard'
p1036
ssaa(lp1037
S'atmega168'
p1038
a(dp1039
S'bootloader'
p1040
(dp1041
S'extended_fuses'
p1042
S'0x00'
p1043
sS'high_fuses'
p1044
S'0xdd'
p1045
sS'low_fuses'
p1046
S'0xff'
p1047
sS'lock_bits'
p1048
S'0x0F'
p1049
sS'file'
p1050
S'ATmegaBOOT_168_ng.hex'
p1051
sS'path'
p1052
S'atmega'
p1053
sS'unlock_bits'
p1054
S'0x3F'
p1055
ssS'upload'
p1056
(dp1057
S'speed'
p1058
S'19200'
p1059
sS'maximum_size'
p1060
S'14336'
p1061
sS'protocol'
p1062
S'arduino'
p1063
ssS'name'
p1064
S'Arduino NG or older w/ ATmega168'
p1065
sS'build'
p1066
(dp1067
S'core'
p1068
S'arduino'
p1069
sS'mcu'
p1070
S'atmega168'
p1071
sS'f_cpu'
p1072
S'16000000L'
p1073
sS'variant'
p1074
S'standard'
p1075
ssaa(lp1076
S'atmega8'
p1077
a(dp1078
S'bootloader'
p1079
(dp1080
S'high_fuses'
p1081
S'0xca'
p1082
sS'low_fuses'
p1083
S'0xdf'
p1084
sS'lock_bits'
p1085
S'0x0F'
p1086
sS'file'
p1087
S'ATmegaBOOT-prod-firmware-2009-11-07.hex'
p1088
sS'path'
p1089
S'atmega8'
p1090
sS'unlock_bits'
p1091
S'0x3F'
p1092
ssS'upload'
p1093
(dp1094
S'speed'
p1095
S'19200'
p1096
sS'maximum_size'
p1097
S'7168'
p1098
sS'protocol'
p1099
S'arduino'
p1100
ssS'name'
p1101
S'Arduino NG or older w/ ATmega8'
p1102
sS'build'
p1103
(dp1104
S'core'
p1105
S'arduino'
p1106
sS'mcu'
p1107
S'atmega8'
p1108
sS'f_cpu'
p1109
S'16000000L'
p1110
sS'variant'
p1111
S'standard'
p1112
ssaa(lp1113
S'robotControl'
p1114
a(dp1115
S'bootloader'
p1116
(dp1117
S'extended_fuses'
p1118
S'0xcb'
p1119
sS'high_fuses'
p1120
S'0xd8'
p1121
sS'low_fuses'
p1122
S'0xff'
p1123
sS'lock_bits'
p1124
S'0x2F'
p1125
sS'file'
p1126
S'Caterina-Robot-Control.hex'
p1127
sS'path'
p1128
S'caterina-Arduino_Robot'
p1129
sS'unlock_bits'
p1130
S'0x3F'
p1131
ssS'upload'
p1132
(dp1133
S'speed'
p1134
S'57600'
p1135
sS'maximum_size'
p1136
S'28672'
p1137
sS'protocol'
p1138
S'avr109'
p1139
sS'disable_flushing'
p1140
S'true'
p1141
ssS'name'
p1142
S'Arduino Robot Control'
p1143
sS'build'
p1144
(dp1145
S'core'
p1146
S'robot'
p1147
sS'f_cpu'
p1148
S'16000000L'
p1149
sS'vid'
p1150
S'0x2341'
p1151
sS'pid'
p1152
S'0x8038'
p1153
sS'variant'
p1154
S'robot_control'
p1155
sS'mcu'
p1156
S'atmega32u4'
p1157
ssaa(lp1158
S'robotMotor'
p1159
a(dp1160
S'bootloader'
p1161
(dp1162
S'extended_fuses'
p1163
S'0xcb'
p1164
sS'high_fuses'
p1165
S'0xd8'
p1166
sS'low_fuses'
p1167
S'0xff'
p1168
sS'lock_bits'
p1169
S'0x2F'
p1170
sS'file'
p1171
S'Caterina-Robot-Motor.hex'
p1172
sS'path'
p1173
S'caterina-Arduino_Robot'
p1174
sS'unlock_bits'
p1175
S'0x3F'
p1176
ssS'upload'
p1177
(dp1178
S'speed'
p1179
S'57600'
p1180
sS'maximum_size'
p1181
S'28672'
p1182
sS'protocol'
p1183
S'avr109'
p1184
sS'disable_flushing'
p1185
S'true'
p1186
ssS'name'
p1187
S'Arduino Robot Motor'
p1188
sS'build'
p1189
(dp1190
S'core'
p1191
S'robot'
p1192
sS'f_cpu'
p1193
S'16000000L'
p1194
sS'vid'
p1195
S'0x2341'
p1196
sS'pid'
p1197
S'0x8039'
p1198
sS'variant'
p1199
S'robot_motor'
p1200
sS'mcu'
p1201
S'atmega32u4'
p1202
ssaatp1203
Rp1204
(dp1205
S'default'
p1206
S'uno'
p1207
sbtp1208
a(S'cxx'
p1209
S'/Applications/Arduino.app/Contents/Resources/Java/hardware/tools/avr/bin/avr-g++'
p1210
tp1211
a.